target datalayout = "e-m:e-p270:32:32-p271:32:32-p272:64:64-i64:64-i128:128-f80:128-n8:16:32:64-S128"
target triple = "x86_64-pc-linux-gnu"

%struct.blake2sp_state__ = type { [8 x [1 x %struct.blake2s_state__]], [1 x %struct.blake2s_state__], [512 x i8], i64, i64 }
%struct.blake2s_state__ = type { [8 x i32], [2 x i32], [2 x i32], [64 x i8], i64, i64, i8 }
%struct.blake2s_param__ = type { i8, i8, i8, i8, i32, i32, i16, i8, i8, [8 x i8], [8 x i8] }

@secure_zero_memory.memset_v = internal constant ptr @memset, align 8

; Function Attrs: nounwind uwtable
define internal i32 @blake2sp_init_leaf_param(ptr noundef %0, ptr noundef %1) #0 {
  %3 = alloca ptr, align 8
  %4 = alloca ptr, align 8
  %5 = alloca i32, align 4
  store ptr %0, ptr %3, align 8, !tbaa !18
  store ptr %1, ptr %4, align 8, !tbaa !47
  call void @llvm.lifetime.start.p0(i64 4, ptr %5) #7
  %6 = load ptr, ptr %3, align 8, !tbaa !18
  %7 = load ptr, ptr %4, align 8, !tbaa !47
  %8 = call i32 @blake2s_init_param(ptr noundef %6, ptr noundef %7)
  store i32 %8, ptr %5, align 4, !tbaa !29
  %9 = load ptr, ptr %4, align 8, !tbaa !47
  %10 = getelementptr inbounds nuw %struct.blake2s_param__, ptr %9, i32 0, i32 8
  %11 = load i8, ptr %10, align 1, !tbaa !28
  %12 = zext i8 %11 to i64
  %13 = load ptr, ptr %3, align 8, !tbaa !18
  %14 = getelementptr inbounds nuw %struct.blake2s_state__, ptr %13, i32 0, i32 5
  store i64 %12, ptr %14, align 8, !tbaa !49
  %15 = load i32, ptr %5, align 4, !tbaa !29
  call void @llvm.lifetime.end.p0(i64 4, ptr %5) #7
  ret i32 %15
}

; Function Attrs: inlinehint nounwind uwtable
define internal void @store16(ptr noundef %0, i16 noundef zeroext %1) #5 {
  %3 = alloca ptr, align 8
  %4 = alloca i16, align 2
  %5 = alloca ptr, align 8
  store ptr %0, ptr %3, align 8, !tbaa !30
  store i16 %1, ptr %4, align 2, !tbaa !46
  call void @llvm.lifetime.start.p0(i64 8, ptr %5) #7
  %6 = load ptr, ptr %3, align 8, !tbaa !30
  store ptr %6, ptr %5, align 8, !tbaa !33
  %7 = load i16, ptr %4, align 2, !tbaa !46
  %8 = trunc i16 %7 to i8
  %9 = load ptr, ptr %5, align 8, !tbaa !33
  %10 = getelementptr inbounds nuw i8, ptr %9, i32 1
  store ptr %10, ptr %5, align 8, !tbaa !33
  store i8 %8, ptr %9, align 1, !tbaa !45
  %11 = load i16, ptr %4, align 2, !tbaa !46
  %12 = zext i16 %11 to i32
  %13 = ashr i32 %12, 8
  %14 = trunc i32 %13 to i16
  store i16 %14, ptr %4, align 2, !tbaa !46
  %15 = load i16, ptr %4, align 2, !tbaa !46
  %16 = trunc i16 %15 to i8
  %17 = load ptr, ptr %5, align 8, !tbaa !33
  %18 = getelementptr inbounds nuw i8, ptr %17, i32 1
  store ptr %18, ptr %5, align 8, !tbaa !33
  store i8 %16, ptr %17, align 1, !tbaa !45
  call void @llvm.lifetime.end.p0(i64 8, ptr %5) #7
  ret void
}

; Function Attrs: inlinehint nounwind uwtable
define internal void @store32(ptr noundef %0, i32 noundef %1) #5 {
  %3 = alloca ptr, align 8
  %4 = alloca i32, align 4
  %5 = alloca ptr, align 8
  store ptr %0, ptr %3, align 8, !tbaa !30
  store i32 %1, ptr %4, align 4, !tbaa !29
  call void @llvm.lifetime.start.p0(i64 8, ptr %5) #7
  %6 = load ptr, ptr %3, align 8, !tbaa !30
  store ptr %6, ptr %5, align 8, !tbaa !33
  %7 = load i32, ptr %4, align 4, !tbaa !29
  %8 = lshr i32 %7, 0
  %9 = trunc i32 %8 to i8
  %10 = load ptr, ptr %5, align 8, !tbaa !33
  %11 = getelementptr inbounds i8, ptr %10, i64 0
  store i8 %9, ptr %11, align 1, !tbaa !45
  %12 = load i32, ptr %4, align 4, !tbaa !29
  %13 = lshr i32 %12, 8
  %14 = trunc i32 %13 to i8
  %15 = load ptr, ptr %5, align 8, !tbaa !33
  %16 = getelementptr inbounds i8, ptr %15, i64 1
  store i8 %14, ptr %16, align 1, !tbaa !45
  %17 = load i32, ptr %4, align 4, !tbaa !29
  %18 = lshr i32 %17, 16
  %19 = trunc i32 %18 to i8
  %20 = load ptr, ptr %5, align 8, !tbaa !33
  %21 = getelementptr inbounds i8, ptr %20, i64 2
  store i8 %19, ptr %21, align 1, !tbaa !45
  %22 = load i32, ptr %4, align 4, !tbaa !29
  %23 = lshr i32 %22, 24
  %24 = trunc i32 %23 to i8
  %25 = load ptr, ptr %5, align 8, !tbaa !33
  %26 = getelementptr inbounds i8, ptr %25, i64 3
  store i8 %24, ptr %26, align 1, !tbaa !45
  call void @llvm.lifetime.end.p0(i64 8, ptr %5) #7
  ret void
}

; Function Attrs: inlinehint nounwind uwtable
define internal void @secure_zero_memory(ptr noundef %0, i64 noundef %1) #5 {
  %3 = alloca ptr, align 8
  %4 = alloca i64, align 8
  store ptr %0, ptr %3, align 8, !tbaa !30
  store i64 %1, ptr %4, align 8, !tbaa !9
  %5 = load volatile ptr, ptr @secure_zero_memory.memset_v, align 8, !tbaa !30
  %6 = load ptr, ptr %3, align 8, !tbaa !30
  %7 = load i64, ptr %4, align 8, !tbaa !9
  %8 = call ptr %5(ptr noundef %6, i32 noundef 0, i64 noundef %7)
  ret void
}

; Function Attrs: nounwind uwtable
define internal i32 @blake2sp_init_leaf(ptr noundef %0, i64 noundef %1, i64 noundef %2, i32 noundef %3) #0 {
  %5 = alloca ptr, align 8
  %6 = alloca i64, align 8
  %7 = alloca i64, align 8
  %8 = alloca i32, align 4
  %9 = alloca [1 x %struct.blake2s_param__], align 16
  store ptr %0, ptr %5, align 8, !tbaa !18
  store i64 %1, ptr %6, align 8, !tbaa !9
  store i64 %2, ptr %7, align 8, !tbaa !9
  store i32 %3, ptr %8, align 4, !tbaa !29
  call void @llvm.lifetime.start.p0(i64 32, ptr %9) #7
  %10 = load i64, ptr %6, align 8, !tbaa !9
  %11 = trunc i64 %10 to i8
  %12 = getelementptr inbounds [1 x %struct.blake2s_param__], ptr %9, i64 0, i64 0
  %13 = getelementptr inbounds nuw %struct.blake2s_param__, ptr %12, i32 0, i32 0
  store i8 %11, ptr %13, align 16, !tbaa !20
  %14 = load i64, ptr %7, align 8, !tbaa !9
  %15 = trunc i64 %14 to i8
  %16 = getelementptr inbounds [1 x %struct.blake2s_param__], ptr %9, i64 0, i64 0
  %17 = getelementptr inbounds nuw %struct.blake2s_param__, ptr %16, i32 0, i32 1
  store i8 %15, ptr %17, align 1, !tbaa !24
  %18 = getelementptr inbounds [1 x %struct.blake2s_param__], ptr %9, i64 0, i64 0
  %19 = getelementptr inbounds nuw %struct.blake2s_param__, ptr %18, i32 0, i32 2
  store i8 8, ptr %19, align 2, !tbaa !25
  %20 = getelementptr inbounds [1 x %struct.blake2s_param__], ptr %9, i64 0, i64 0
  %21 = getelementptr inbounds nuw %struct.blake2s_param__, ptr %20, i32 0, i32 3
  store i8 2, ptr %21, align 1, !tbaa !26
  %22 = getelementptr inbounds [1 x %struct.blake2s_param__], ptr %9, i64 0, i64 0
  %23 = getelementptr inbounds nuw %struct.blake2s_param__, ptr %22, i32 0, i32 4
  call void @store32(ptr noundef %23, i32 noundef 0)
  %24 = getelementptr inbounds [1 x %struct.blake2s_param__], ptr %9, i64 0, i64 0
  %25 = getelementptr inbounds nuw %struct.blake2s_param__, ptr %24, i32 0, i32 5
  %26 = load i32, ptr %8, align 4, !tbaa !29
  call void @store32(ptr noundef %25, i32 noundef %26)
  %27 = getelementptr inbounds [1 x %struct.blake2s_param__], ptr %9, i64 0, i64 0
  %28 = getelementptr inbounds nuw %struct.blake2s_param__, ptr %27, i32 0, i32 6
  call void @store16(ptr noundef %28, i16 noundef zeroext 0)
  %29 = getelementptr inbounds [1 x %struct.blake2s_param__], ptr %9, i64 0, i64 0
  %30 = getelementptr inbounds nuw %struct.blake2s_param__, ptr %29, i32 0, i32 7
  store i8 0, ptr %30, align 2, !tbaa !27
  %31 = getelementptr inbounds [1 x %struct.blake2s_param__], ptr %9, i64 0, i64 0
  %32 = getelementptr inbounds nuw %struct.blake2s_param__, ptr %31, i32 0, i32 8
  store i8 32, ptr %32, align 1, !tbaa !28
  %33 = getelementptr inbounds [1 x %struct.blake2s_param__], ptr %9, i64 0, i64 0
  %34 = getelementptr inbounds nuw %struct.blake2s_param__, ptr %33, i32 0, i32 9
  %35 = getelementptr inbounds [8 x i8], ptr %34, i64 0, i64 0
  call void @llvm.memset.p0.i64(ptr align 16 %35, i8 0, i64 8, i1 false)
  %36 = getelementptr inbounds [1 x %struct.blake2s_param__], ptr %9, i64 0, i64 0
  %37 = getelementptr inbounds nuw %struct.blake2s_param__, ptr %36, i32 0, i32 10
  %38 = getelementptr inbounds [8 x i8], ptr %37, i64 0, i64 0
  call void @llvm.memset.p0.i64(ptr align 8 %38, i8 0, i64 8, i1 false)
  %39 = load ptr, ptr %5, align 8, !tbaa !18
  %40 = getelementptr inbounds [1 x %struct.blake2s_param__], ptr %9, i64 0, i64 0
  %41 = call i32 @blake2sp_init_leaf_param(ptr noundef %39, ptr noundef %40)
  call void @llvm.lifetime.end.p0(i64 32, ptr %9) #7
  ret i32 %41
}

; Function Attrs: nounwind uwtable
define internal i32 @blake2sp_init_root(ptr noundef %0, i64 noundef %1, i64 noundef %2) #0 {
  %4 = alloca ptr, align 8
  %5 = alloca i64, align 8
  %6 = alloca i64, align 8
  %7 = alloca [1 x %struct.blake2s_param__], align 16
  store ptr %0, ptr %4, align 8, !tbaa !18
  store i64 %1, ptr %5, align 8, !tbaa !9
  store i64 %2, ptr %6, align 8, !tbaa !9
  call void @llvm.lifetime.start.p0(i64 32, ptr %7) #7
  %8 = load i64, ptr %5, align 8, !tbaa !9
  %9 = trunc i64 %8 to i8
  %10 = getelementptr inbounds [1 x %struct.blake2s_param__], ptr %7, i64 0, i64 0
  %11 = getelementptr inbounds nuw %struct.blake2s_param__, ptr %10, i32 0, i32 0
  store i8 %9, ptr %11, align 16, !tbaa !20
  %12 = load i64, ptr %6, align 8, !tbaa !9
  %13 = trunc i64 %12 to i8
  %14 = getelementptr inbounds [1 x %struct.blake2s_param__], ptr %7, i64 0, i64 0
  %15 = getelementptr inbounds nuw %struct.blake2s_param__, ptr %14, i32 0, i32 1
  store i8 %13, ptr %15, align 1, !tbaa !24
  %16 = getelementptr inbounds [1 x %struct.blake2s_param__], ptr %7, i64 0, i64 0
  %17 = getelementptr inbounds nuw %struct.blake2s_param__, ptr %16, i32 0, i32 2
  store i8 8, ptr %17, align 2, !tbaa !25
  %18 = getelementptr inbounds [1 x %struct.blake2s_param__], ptr %7, i64 0, i64 0
  %19 = getelementptr inbounds nuw %struct.blake2s_param__, ptr %18, i32 0, i32 3
  store i8 2, ptr %19, align 1, !tbaa !26
  %20 = getelementptr inbounds [1 x %struct.blake2s_param__], ptr %7, i64 0, i64 0
  %21 = getelementptr inbounds nuw %struct.blake2s_param__, ptr %20, i32 0, i32 4
  call void @store32(ptr noundef %21, i32 noundef 0)
  %22 = getelementptr inbounds [1 x %struct.blake2s_param__], ptr %7, i64 0, i64 0
  %23 = getelementptr inbounds nuw %struct.blake2s_param__, ptr %22, i32 0, i32 5
  call void @store32(ptr noundef %23, i32 noundef 0)
  %24 = getelementptr inbounds [1 x %struct.blake2s_param__], ptr %7, i64 0, i64 0
  %25 = getelementptr inbounds nuw %struct.blake2s_param__, ptr %24, i32 0, i32 6
  call void @store16(ptr noundef %25, i16 noundef zeroext 0)
  %26 = getelementptr inbounds [1 x %struct.blake2s_param__], ptr %7, i64 0, i64 0
  %27 = getelementptr inbounds nuw %struct.blake2s_param__, ptr %26, i32 0, i32 7
  store i8 1, ptr %27, align 2, !tbaa !27
  %28 = getelementptr inbounds [1 x %struct.blake2s_param__], ptr %7, i64 0, i64 0
  %29 = getelementptr inbounds nuw %struct.blake2s_param__, ptr %28, i32 0, i32 8
  store i8 32, ptr %29, align 1, !tbaa !28
  %30 = getelementptr inbounds [1 x %struct.blake2s_param__], ptr %7, i64 0, i64 0
  %31 = getelementptr inbounds nuw %struct.blake2s_param__, ptr %30, i32 0, i32 9
  %32 = getelementptr inbounds [8 x i8], ptr %31, i64 0, i64 0
  call void @llvm.memset.p0.i64(ptr align 16 %32, i8 0, i64 8, i1 false)
  %33 = getelementptr inbounds [1 x %struct.blake2s_param__], ptr %7, i64 0, i64 0
  %34 = getelementptr inbounds nuw %struct.blake2s_param__, ptr %33, i32 0, i32 10
  %35 = getelementptr inbounds [8 x i8], ptr %34, i64 0, i64 0
  call void @llvm.memset.p0.i64(ptr align 8 %35, i8 0, i64 8, i1 false)
  %36 = load ptr, ptr %4, align 8, !tbaa !18
  %37 = getelementptr inbounds [1 x %struct.blake2s_param__], ptr %7, i64 0, i64 0
  %38 = call i32 @blake2s_init_param(ptr noundef %36, ptr noundef %37)
  call void @llvm.lifetime.end.p0(i64 32, ptr %7) #7
  ret i32 %38
}

; Function Attrs: nounwind uwtable
define dso_local i32 @blake2sp_init_key(ptr noundef %0, i64 noundef %1, ptr noundef %2, i64 noundef %3) #0 {
  %5 = alloca i32, align 4
  %6 = alloca ptr, align 8
  %7 = alloca i64, align 8
  %8 = alloca ptr, align 8
  %9 = alloca i64, align 8
  %10 = alloca i64, align 8
  %11 = alloca i32, align 4
  %12 = alloca [64 x i8], align 16
  store ptr %0, ptr %6, align 8, !tbaa !4
  store i64 %1, ptr %7, align 8, !tbaa !9
  store ptr %2, ptr %8, align 8, !tbaa !30
  store i64 %3, ptr %9, align 8, !tbaa !9
  call void @llvm.lifetime.start.p0(i64 8, ptr %10) #7
  %13 = load i64, ptr %7, align 8, !tbaa !9
  %14 = icmp ne i64 %13, 0
  br i1 %14, label %15, label %18

15:                                               ; preds = %4
  %16 = load i64, ptr %7, align 8, !tbaa !9
  %17 = icmp ugt i64 %16, 32
  br i1 %17, label %18, label %19

18:                                               ; preds = %15, %4
  store i32 -1, ptr %5, align 4
  store i32 1, ptr %11, align 4
  br label %97

19:                                               ; preds = %15
  %20 = load ptr, ptr %8, align 8, !tbaa !30
  %21 = icmp ne ptr %20, null
  br i1 %21, label %22, label %28

22:                                               ; preds = %19
  %23 = load i64, ptr %9, align 8, !tbaa !9
  %24 = icmp ne i64 %23, 0
  br i1 %24, label %25, label %28

25:                                               ; preds = %22
  %26 = load i64, ptr %9, align 8, !tbaa !9
  %27 = icmp ugt i64 %26, 32
  br i1 %27, label %28, label %29

28:                                               ; preds = %25, %22, %19
  store i32 -1, ptr %5, align 4
  store i32 1, ptr %11, align 4
  br label %97

29:                                               ; preds = %25
  %30 = load ptr, ptr %6, align 8, !tbaa !4
  %31 = getelementptr inbounds nuw %struct.blake2sp_state__, ptr %30, i32 0, i32 2
  %32 = getelementptr inbounds [512 x i8], ptr %31, i64 0, i64 0
  call void @llvm.memset.p0.i64(ptr align 8 %32, i8 0, i64 512, i1 false)
  %33 = load ptr, ptr %6, align 8, !tbaa !4
  %34 = getelementptr inbounds nuw %struct.blake2sp_state__, ptr %33, i32 0, i32 3
  store i64 0, ptr %34, align 8, !tbaa !11
  %35 = load i64, ptr %7, align 8, !tbaa !9
  %36 = load ptr, ptr %6, align 8, !tbaa !4
  %37 = getelementptr inbounds nuw %struct.blake2sp_state__, ptr %36, i32 0, i32 4
  store i64 %35, ptr %37, align 8, !tbaa !13
  %38 = load ptr, ptr %6, align 8, !tbaa !4
  %39 = getelementptr inbounds nuw %struct.blake2sp_state__, ptr %38, i32 0, i32 1
  %40 = getelementptr inbounds [1 x %struct.blake2s_state__], ptr %39, i64 0, i64 0
  %41 = load i64, ptr %7, align 8, !tbaa !9
  %42 = load i64, ptr %9, align 8, !tbaa !9
  %43 = call i32 @blake2sp_init_root(ptr noundef %40, i64 noundef %41, i64 noundef %42)
  %44 = icmp slt i32 %43, 0
  br i1 %44, label %45, label %46

45:                                               ; preds = %29
  store i32 -1, ptr %5, align 4
  store i32 1, ptr %11, align 4
  br label %97

46:                                               ; preds = %29
  store i64 0, ptr %10, align 8, !tbaa !9
  br label %47

47:                                               ; preds = %64, %46
  %48 = load i64, ptr %10, align 8, !tbaa !9
  %49 = icmp ult i64 %48, 8
  br i1 %49, label %50, label %67

50:                                               ; preds = %47
  %51 = load ptr, ptr %6, align 8, !tbaa !4
  %52 = getelementptr inbounds nuw %struct.blake2sp_state__, ptr %51, i32 0, i32 0
  %53 = load i64, ptr %10, align 8, !tbaa !9
  %54 = getelementptr inbounds nuw [8 x [1 x %struct.blake2s_state__]], ptr %52, i64 0, i64 %53
  %55 = getelementptr inbounds [1 x %struct.blake2s_state__], ptr %54, i64 0, i64 0
  %56 = load i64, ptr %7, align 8, !tbaa !9
  %57 = load i64, ptr %9, align 8, !tbaa !9
  %58 = load i64, ptr %10, align 8, !tbaa !9
  %59 = trunc i64 %58 to i32
  %60 = call i32 @blake2sp_init_leaf(ptr noundef %55, i64 noundef %56, i64 noundef %57, i32 noundef %59)
  %61 = icmp slt i32 %60, 0
  br i1 %61, label %62, label %63

62:                                               ; preds = %50
  store i32 -1, ptr %5, align 4
  store i32 1, ptr %11, align 4
  br label %97

63:                                               ; preds = %50
  br label %64

64:                                               ; preds = %63
  %65 = load i64, ptr %10, align 8, !tbaa !9
  %66 = add i64 %65, 1
  store i64 %66, ptr %10, align 8, !tbaa !9
  br label %47, !llvm.loop !31

67:                                               ; preds = %47
  %68 = load ptr, ptr %6, align 8, !tbaa !4
  %69 = getelementptr inbounds nuw %struct.blake2sp_state__, ptr %68, i32 0, i32 1
  %70 = getelementptr inbounds [1 x %struct.blake2s_state__], ptr %69, i64 0, i64 0
  %71 = getelementptr inbounds nuw %struct.blake2s_state__, ptr %70, i32 0, i32 6
  store i8 1, ptr %71, align 8, !tbaa !16
  %72 = load ptr, ptr %6, align 8, !tbaa !4
  %73 = getelementptr inbounds nuw %struct.blake2sp_state__, ptr %72, i32 0, i32 0
  %74 = getelementptr inbounds [8 x [1 x %struct.blake2s_state__]], ptr %73, i64 0, i64 7
  %75 = getelementptr inbounds [1 x %struct.blake2s_state__], ptr %74, i64 0, i64 0
  %76 = getelementptr inbounds nuw %struct.blake2s_state__, ptr %75, i32 0, i32 6
  store i8 1, ptr %76, align 8, !tbaa !16
  call void @llvm.lifetime.start.p0(i64 64, ptr %12) #7
  %77 = getelementptr inbounds [64 x i8], ptr %12, i64 0, i64 0
  call void @llvm.memset.p0.i64(ptr align 16 %77, i8 0, i64 64, i1 false)
  %78 = getelementptr inbounds [64 x i8], ptr %12, i64 0, i64 0
  %79 = load ptr, ptr %8, align 8, !tbaa !30
  %80 = load i64, ptr %9, align 8, !tbaa !9
  call void @llvm.memcpy.p0.p0.i64(ptr align 16 %78, ptr align 1 %79, i64 %80, i1 false)
  store i64 0, ptr %10, align 8, !tbaa !9
  br label %81

81:                                               ; preds = %92, %67
  %82 = load i64, ptr %10, align 8, !tbaa !9
  %83 = icmp ult i64 %82, 8
  br i1 %83, label %84, label %95

84:                                               ; preds = %81
  %85 = load ptr, ptr %6, align 8, !tbaa !4
  %86 = getelementptr inbounds nuw %struct.blake2sp_state__, ptr %85, i32 0, i32 0
  %87 = load i64, ptr %10, align 8, !tbaa !9
  %88 = getelementptr inbounds nuw [8 x [1 x %struct.blake2s_state__]], ptr %86, i64 0, i64 %87
  %89 = getelementptr inbounds [1 x %struct.blake2s_state__], ptr %88, i64 0, i64 0
  %90 = getelementptr inbounds [64 x i8], ptr %12, i64 0, i64 0
  %91 = call i32 @blake2s_update(ptr noundef %89, ptr noundef %90, i64 noundef 64)
  br label %92

92:                                               ; preds = %84
  %93 = load i64, ptr %10, align 8, !tbaa !9
  %94 = add i64 %93, 1
  store i64 %94, ptr %10, align 8, !tbaa !9
  br label %81, !llvm.loop !32

95:                                               ; preds = %81
  %96 = getelementptr inbounds [64 x i8], ptr %12, i64 0, i64 0
  call void @secure_zero_memory(ptr noundef %96, i64 noundef 64)
  call void @llvm.lifetime.end.p0(i64 64, ptr %12) #7
  store i32 0, ptr %5, align 4
  store i32 1, ptr %11, align 4
  br label %97

97:                                               ; preds = %95, %62, %45, %28, %18
  call void @llvm.lifetime.end.p0(i64 8, ptr %10) #7
  %98 = load i32, ptr %5, align 4
  ret i32 %98
}