; Function Attrs: nounwind uwtable
define dso_local range(i32 -1, 1) i32 @blake2sp_init_key(ptr noundef %0, i64 noundef %1, ptr noundef readonly %2, i64 noundef %3) local_unnamed_addr #0 {
  %5 = alloca [1 x %struct.blake2s_param__], align 16
  %6 = alloca [1 x %struct.blake2s_param__], align 16
  %7 = alloca [64 x i8], align 16
  %8 = add i64 %1, -33
  %or.cond = icmp ult i64 %8, -32
  br i1 %or.cond, label %.loopexit, label %9

9:                                                ; preds = %4
  %10 = icmp eq ptr %2, null
  %11 = add i64 %3, -33
  %12 = icmp ult i64 %11, -32
  %or.cond5 = or i1 %10, %12
  br i1 %or.cond5, label %.loopexit, label %13

13:                                               ; preds = %9
  %14 = getelementptr inbounds nuw i8, ptr %0, i64 1224
  %15 = getelementptr inbounds nuw i8, ptr %0, i64 1744
  tail call void @llvm.memset.p0.i64(ptr noundef nonnull align 8 dereferenceable(520) %14, i8 0, i64 520, i1 false)
  store i64 %1, ptr %15, align 8, !tbaa !4
  %16 = getelementptr inbounds nuw i8, ptr %0, i64 1088
  call void @llvm.lifetime.start.p0(i64 32, ptr nonnull %6) #7
  %17 = trunc nuw nsw i64 %1 to i8
  store i8 %17, ptr %6, align 16, !tbaa !9
  %18 = trunc nuw nsw i64 %3 to i8
  %19 = getelementptr inbounds nuw i8, ptr %6, i64 1
  store i8 %18, ptr %19, align 1, !tbaa !13
  %20 = getelementptr inbounds nuw i8, ptr %6, i64 2
  store i8 8, ptr %20, align 2, !tbaa !14
  %21 = getelementptr inbounds nuw i8, ptr %6, i64 3
  store i8 2, ptr %21, align 1, !tbaa !15
  %22 = getelementptr inbounds nuw i8, ptr %6, i64 4
  %23 = getelementptr inbounds nuw i8, ptr %6, i64 14
  call void @llvm.memset.p0.i64(ptr noundef nonnull align 4 dereferenceable(10) %22, i8 0, i64 10, i1 false)
  store i8 1, ptr %23, align 2, !tbaa !16
  %24 = getelementptr inbounds nuw i8, ptr %6, i64 15
  store i8 32, ptr %24, align 1, !tbaa !17
  %25 = getelementptr inbounds nuw i8, ptr %6, i64 16
  call void @llvm.memset.p0.i64(ptr noundef nonnull align 16 dereferenceable(16) %25, i8 0, i64 16, i1 false)
  %26 = call i32 @blake2s_init_param(ptr noundef nonnull %16, ptr noundef nonnull %6) #7
  call void @llvm.lifetime.end.p0(i64 32, ptr nonnull %6) #7
  %27 = icmp slt i32 %26, 0
  br i1 %27, label %.loopexit, label %.preheader

.preheader:                                       ; preds = %13
  %28 = getelementptr inbounds nuw i8, ptr %5, i64 1
  %29 = getelementptr inbounds nuw i8, ptr %5, i64 2
  %30 = getelementptr inbounds nuw i8, ptr %5, i64 3
  %31 = getelementptr inbounds nuw i8, ptr %5, i64 4
  %32 = getelementptr inbounds nuw i8, ptr %5, i64 8
  %33 = getelementptr inbounds nuw i8, ptr %5, i64 9
  %34 = getelementptr inbounds nuw i8, ptr %5, i64 15
  %35 = getelementptr inbounds nuw i8, ptr %5, i64 16
  br label %38

36:                                               ; preds = %38
  %37 = add nuw nsw i64 %.037, 1
  %exitcond.not = icmp eq i64 %37, 8
  br i1 %exitcond.not, label %46, label %38, !llvm.loop !24

38:                                               ; preds = %.preheader, %36
  %.037 = phi i64 [ 0, %.preheader ], [ %37, %36 ]
  %39 = getelementptr inbounds nuw [8 x [1 x %struct.blake2s_state__]], ptr %0, i64 0, i64 %.037
  call void @llvm.lifetime.start.p0(i64 32, ptr nonnull %5) #7
  store i8 %17, ptr %5, align 16, !tbaa !9
  store i8 %18, ptr %28, align 1, !tbaa !13
  store i8 8, ptr %29, align 2, !tbaa !14
  store i8 2, ptr %30, align 1, !tbaa !15
  %40 = trunc nuw nsw i64 %.037 to i8
  store i32 0, ptr %31, align 4
  store i8 %40, ptr %32, align 8, !tbaa !20
  call void @llvm.memset.p0.i64(ptr noundef nonnull align 1 dereferenceable(6) %33, i8 0, i64 6, i1 false)
  store i8 32, ptr %34, align 1, !tbaa !17
  call void @llvm.memset.p0.i64(ptr noundef nonnull align 16 dereferenceable(16) %35, i8 0, i64 16, i1 false)
  %41 = call i32 @blake2s_init_param(ptr noundef %39, ptr noundef nonnull %5) #7
  %42 = load i8, ptr %34, align 1, !tbaa !17
  %43 = zext i8 %42 to i64
  %44 = getelementptr inbounds nuw i8, ptr %39, i64 120
  store i64 %43, ptr %44, align 8, !tbaa !21
  call void @llvm.lifetime.end.p0(i64 32, ptr nonnull %5) #7
  %45 = icmp slt i32 %41, 0
  br i1 %45, label %.loopexit, label %36

46:                                               ; preds = %36
  %47 = getelementptr inbounds nuw i8, ptr %0, i64 1216
  store i8 1, ptr %47, align 8, !tbaa !23
  %48 = getelementptr inbounds nuw i8, ptr %0, i64 1080
  store i8 1, ptr %48, align 8, !tbaa !23
  call void @llvm.lifetime.start.p0(i64 64, ptr nonnull %7) #7
  call void @llvm.memset.p0.i64(ptr noundef nonnull align 16 dereferenceable(64) %7, i8 0, i64 64, i1 false)
  call void @llvm.memcpy.p0.p0.i64(ptr nonnull align 16 %7, ptr align 1 %2, i64 %3, i1 false)
  br label %49

49:                                               ; preds = %46, %49
  %.138 = phi i64 [ 0, %46 ], [ %52, %49 ]
  %50 = getelementptr inbounds nuw [8 x [1 x %struct.blake2s_state__]], ptr %0, i64 0, i64 %.138
  %51 = call i32 @blake2s_update(ptr noundef %50, ptr noundef nonnull %7, i64 noundef 64) #7
  %52 = add nuw nsw i64 %.138, 1
  %exitcond39.not = icmp eq i64 %52, 8
  br i1 %exitcond39.not, label %53, label %49, !llvm.loop !25

53:                                               ; preds = %49
  %54 = load volatile ptr, ptr @secure_zero_memory.memset_v, align 8, !tbaa !26
  %55 = call ptr %54(ptr noundef nonnull %7, i32 noundef 0, i64 noundef 64) #7
  call void @llvm.lifetime.end.p0(i64 64, ptr nonnull %7) #7
  br label %.loopexit

.loopexit:                                        ; preds = %38, %13, %9, %4, %53
  %.032 = phi i32 [ 0, %53 ], [ -1, %4 ], [ -1, %9 ], [ -1, %13 ], [ -1, %38 ]
  ret i32 %.032
}